	.file	"AX12.c"
__SP_H__ = 0x3e
__SP_L__ = 0x3d
__SREG__ = 0x3f
__RAMPZ__ = 0x3b
__tmp_reg__ = 0
__zero_reg__ = 1
	.text
.Ltext0:
	.cfi_sections	.debug_frame
.global	AX12_UpdateAll
	.type	AX12_UpdateAll, @function
AX12_UpdateAll:
.LFB7:
	.file 1 "src/AX12.c"
	.loc 1 18 0
	.cfi_startproc
/* prologue: function */
/* frame size = 0 */
/* stack size = 0 */
.L__stack_usage = 0
	.loc 1 19 0
	sts i+1,__zero_reg__
	sts i,__zero_reg__
	ret
	.cfi_endproc
.LFE7:
	.size	AX12_UpdateAll, .-AX12_UpdateAll
.global	AX12_InitAll
	.type	AX12_InitAll, @function
AX12_InitAll:
.LFB8:
	.loc 1 46 0
	.cfi_startproc
.LVL0:
	push r28
.LCFI0:
	.cfi_def_cfa_offset 3
	.cfi_offset 28, -2
	push r29
.LCFI1:
	.cfi_def_cfa_offset 4
	.cfi_offset 29, -3
/* prologue: function */
/* frame size = 0 */
/* stack size = 2 */
.L__stack_usage = 2
	movw r28,r24
	.loc 1 47 0
	call dynamixel_ax_init
.LVL1:
	.loc 1 48 0
	sts CAN_ID+1,r29
	sts CAN_ID,r28
/* epilogue start */
	.loc 1 49 0
	pop r29
	pop r28
.LVL2:
	ret
	.cfi_endproc
.LFE8:
	.size	AX12_InitAll, .-AX12_InitAll
.global	AX12_OnMessage
	.type	AX12_OnMessage, @function
AX12_OnMessage:
.LFB9:
	.loc 1 51 0
	.cfi_startproc
.LVL3:
	push r16
.LCFI2:
	.cfi_def_cfa_offset 3
	.cfi_offset 16, -2
	push r17
.LCFI3:
	.cfi_def_cfa_offset 4
	.cfi_offset 17, -3
	push r28
.LCFI4:
	.cfi_def_cfa_offset 5
	.cfi_offset 28, -4
	push r29
.LCFI5:
	.cfi_def_cfa_offset 6
	.cfi_offset 29, -5
	in r28,__SP_L__
	in r29,__SP_H__
.LCFI6:
	.cfi_def_cfa_register 28
	sbiw r28,36
.LCFI7:
	.cfi_def_cfa_offset 42
	in __tmp_reg__,__SREG__
	cli
	out __SP_H__,r29
	out __SREG__,__tmp_reg__
	out __SP_L__,r28
/* prologue: function */
/* frame size = 36 */
/* stack size = 40 */
.L__stack_usage = 40
	.loc 1 52 0
	lds r20,CAN_ID
	lds r21,CAN_ID+1
	ldi r22,0
	ldi r23,0
	movw r30,r24
	ld r16,Z
	ldd r17,Z+1
	ldd r18,Z+2
	ldd r19,Z+3
	cp r16,r20
	cpc r17,r21
	cpc r18,r22
	cpc r19,r23
	brne .L3
.LBB2:
	.loc 1 58 0
	ldd r20,Z+5
	ldi r21,0
	movw r22,r24
	subi r22,-6
	sbci r23,-1
	movw r24,r28
.LVL4:
	adiw r24,28
	call memcpy
.LVL5:
	.loc 1 59 0
	movw r22,r28
	subi r22,-15
	sbci r23,-1
	movw r24,r28
	adiw r24,26
	call dynamixel_ax_txrx
.LVL6:
	.loc 1 63 0
	lds r20,CAN_ID
	lds r21,CAN_ID+1
	ldi r22,0
	ldi r23,0
	std Y+1,r20
	std Y+2,r21
	std Y+3,r22
	std Y+4,r23
	.loc 1 64 0
	ldd r25,Y+5
	.loc 1 65 0
	andi r25,lo8(-2)
	ori r25,lo8(1<<1)
	std Y+5,r25
	.loc 1 67 0
	cpi r24,lo8(1)
	brne .L5
	.loc 1 68 0
	ldd r17,Y+18
	subi r17,lo8(-(1))
.LVL7:
	.loc 1 69 0
	mov r20,r17
	ldi r21,0
	movw r22,r28
	subi r22,-17
	sbci r23,-1
	movw r24,r28
.LVL8:
	adiw r24,7
	call memcpy
.LVL9:
.L6:
	.loc 1 74 0
	std Y+6,r17
	.loc 1 75 0
	movw r24,r28
	adiw r24,1
	call can_send_message
.LVL10:
.L3:
/* epilogue start */
.LBE2:
	.loc 1 77 0
	adiw r28,36
	in __tmp_reg__,__SREG__
	cli
	out __SP_H__,r29
	out __SREG__,__tmp_reg__
	out __SP_L__,r28
	pop r29
	pop r28
	pop r17
	pop r16
	ret
.LVL11:
.L5:
.LBB3:
	.loc 1 72 0
	std Y+7,r24
	.loc 1 71 0
	ldi r17,lo8(1)
	rjmp .L6
.LBE3:
	.cfi_endproc
.LFE9:
	.size	AX12_OnMessage, .-AX12_OnMessage
	.local	i
	.comm	i,2,1
	.local	CAN_ID
	.comm	CAN_ID,2,1
.Letext0:
	.file 2 "/usr/avr/include/stdint.h"
	.file 3 "/usr/lib/gcc/avr/6.3.0/include/stddef.h"
	.file 4 "./libs/can/can.h"
	.file 5 "src/AX12.h"
	.file 6 "/usr/avr/include/stdlib.h"
	.file 7 "./libs/dynamixel/dynamixel.h"