	.file	"main.c"
__SP_H__ = 0x3e
__SP_L__ = 0x3d
__SREG__ = 0x3f
__RAMPZ__ = 0x3b
__tmp_reg__ = 0
__zero_reg__ = 1
	.text
.Ltext0:
	.cfi_sections	.debug_frame
	.section	.text.startup,"ax",@progbits
.global	main
	.type	main, @function
main:
.LFB7:
	.file 1 "src/main.c"
	.loc 1 14 0
	.cfi_startproc
	push r28
.LCFI0:
	.cfi_def_cfa_offset 3
	.cfi_offset 28, -2
	push r29
.LCFI1:
	.cfi_def_cfa_offset 4
	.cfi_offset 29, -3
	in r28,__SP_L__
	in r29,__SP_H__
.LCFI2:
	.cfi_def_cfa_register 28
	subi r28,-98
	sbc r29,__zero_reg__
.LCFI3:
	.cfi_def_cfa_offset 162
	in __tmp_reg__,__SREG__
	cli
	out __SP_H__,r29
	out __SREG__,__tmp_reg__
	out __SP_L__,r28
/* prologue: function */
/* frame size = 158 */
/* stack size = 160 */
.L__stack_usage = 160
	.loc 1 15 0
	call Utils_Init
.LVL0:
	.loc 1 16 0
	call Debugger_Init
.LVL1:
	.loc 1 18 0
	call can_wrapper_init
.LVL2:
	.loc 1 19 0
	ldi r24,lo8(-48)
	ldi r25,lo8(7)
	call AX12_InitAll
.LVL3:
	.loc 1 21 0
	push __zero_reg__
	ldi r24,lo8(1)
	push r24
	push r24
	push __zero_reg__
	push __zero_reg__
	ldi r24,lo8(27)
	push r24
	ldi r24,lo8(88)
	push r24
	call can_wrapper_send
.LVL4:
	.loc 1 24 0
	ldi r16,0
	ldi r18,lo8(36)
	ldi r19,0
	ldi r20,lo8(37)
	ldi r21,0
	ldi r22,lo8(7)
	movw r24,r28
	subi r24,-73
	sbci r25,-1
	call MCP_Init
.LVL5:
	.loc 1 27 0
	ldi r18,lo8(36)
	ldi r19,0
	ldi r20,lo8(37)
	ldi r21,0
	ldi r22,0
	movw r24,r28
	adiw r24,1
	call MCP_Init
.LVL6:
	.loc 1 30 0
/* #APP */
 ;  30 "src/main.c" 1
	sei
 ;  0 "" 2
	.loc 1 33 0
/* #NOAPP */
	ldi r18,lo8(-24)
	ldi r19,lo8(3)
	ldi r20,0
	ldi r22,lo8(18)
	movw r24,r28
	subi r24,-73
	sbci r25,-1
	call MCP_AddActuator
.LVL7:
	.loc 1 34 0
	ldi r18,lo8(-23)
	ldi r19,lo8(3)
	ldi r20,lo8(1)
	ldi r22,lo8(18)
	movw r24,r28
	subi r24,-73
	sbci r25,-1
	call MCP_AddActuator
.LVL8:
	.loc 1 35 0
	ldi r18,lo8(-22)
	ldi r19,lo8(3)
	ldi r20,lo8(2)
	ldi r22,lo8(18)
	movw r24,r28
	subi r24,-73
	sbci r25,-1
	call MCP_AddActuator
.LVL9:
	.loc 1 36 0
	ldi r18,lo8(-21)
	ldi r19,lo8(3)
	ldi r20,lo8(3)
	ldi r22,lo8(18)
	movw r24,r28
	subi r24,-73
	sbci r25,-1
	call MCP_AddActuator
.LVL10:
	.loc 1 37 0
	ldi r18,lo8(-20)
	ldi r19,lo8(3)
	ldi r20,lo8(4)
	ldi r22,lo8(18)
	movw r24,r28
	subi r24,-73
	sbci r25,-1
	call MCP_AddActuator
.LVL11:
	.loc 1 38 0
	ldi r18,lo8(-19)
	ldi r19,lo8(3)
	ldi r20,lo8(5)
	ldi r22,lo8(18)
	movw r24,r28
	subi r24,-73
	sbci r25,-1
	call MCP_AddActuator
.LVL12:
	.loc 1 39 0
	ldi r18,lo8(-18)
	ldi r19,lo8(3)
	ldi r20,lo8(6)
	ldi r22,lo8(18)
	movw r24,r28
	subi r24,-73
	sbci r25,-1
	call MCP_AddActuator
.LVL13:
	.loc 1 41 0
	ldi r18,lo8(-10)
	ldi r19,lo8(3)
	ldi r20,lo8(4)
	ldi r22,lo8(19)
	movw r24,r28
	adiw r24,1
	call MCP_AddActuator
.LVL14:
	.loc 1 42 0
	ldi r18,lo8(-9)
	ldi r19,lo8(3)
	ldi r20,lo8(5)
	ldi r22,lo8(19)
	movw r24,r28
	adiw r24,1
	call MCP_AddActuator
.LVL15:
	.loc 1 43 0
	ldi r18,lo8(-8)
	ldi r19,lo8(3)
	ldi r20,lo8(6)
	ldi r22,lo8(19)
	movw r24,r28
	adiw r24,1
	call MCP_AddActuator
.LVL16:
	.loc 1 46 0
	ldi r16,0
	ldi r17,lo8(-128)
	ldi r18,lo8(6)
	ldi r20,lo8(38)
	ldi r21,0
	ldi r22,lo8(40)
	ldi r23,0
	ldi r24,lo8(39)
	ldi r25,0
	call BinarySensor_Add
.LVL17:
	.loc 1 47 0
	ldi r16,lo8(1)
	ldi r17,lo8(-128)
	ldi r18,lo8(7)
	ldi r20,lo8(38)
	ldi r21,0
	ldi r22,lo8(40)
	ldi r23,0
	ldi r24,lo8(39)
	ldi r25,0
	call BinarySensor_Add
.LVL18:
	.loc 1 48 0
	ldi r16,lo8(2)
	ldi r17,lo8(-128)
	ldi r18,lo8(2)
	ldi r20,lo8(50)
	ldi r21,0
	ldi r22,lo8(52)
	ldi r23,0
	ldi r24,lo8(51)
	ldi r25,0
	call BinarySensor_Add
.LVL19:
	.loc 1 49 0
	ldi r16,lo8(3)
	ldi r17,lo8(-128)
	ldi r18,lo8(7)
	ldi r20,lo8(32)
	ldi r21,0
	ldi r22,lo8(34)
	ldi r23,0
	ldi r24,lo8(33)
	ldi r25,0
	call BinarySensor_Add
.LVL20:
	.loc 1 50 0
	ldi r16,lo8(4)
	ldi r17,lo8(-128)
	ldi r18,lo8(6)
	ldi r20,lo8(32)
	ldi r21,0
	ldi r22,lo8(34)
	ldi r23,0
	ldi r24,lo8(33)
	ldi r25,0
	call BinarySensor_Add
.LVL21:
	.loc 1 51 0
	ldi r16,lo8(5)
	ldi r17,lo8(-128)
	ldi r18,lo8(5)
	ldi r20,lo8(32)
	ldi r21,0
	ldi r22,lo8(34)
	ldi r23,0
	ldi r24,lo8(33)
	ldi r25,0
	call BinarySensor_Add
.LVL22:
	.loc 1 52 0
	ldi r16,lo8(6)
	ldi r17,lo8(-128)
	ldi r18,lo8(4)
	ldi r20,lo8(32)
	ldi r21,0
	ldi r22,lo8(34)
	ldi r23,0
	ldi r24,lo8(33)
	ldi r25,0
	call BinarySensor_Add
.LVL23:
	.loc 1 53 0
	ldi r16,lo8(7)
	ldi r17,lo8(-128)
	ldi r18,lo8(3)
	ldi r20,lo8(32)
	ldi r21,0
	ldi r22,lo8(34)
	ldi r23,0
	ldi r24,lo8(33)
	ldi r25,0
	call BinarySensor_Add
.LVL24:
	.loc 1 56 0
	ldi r16,lo8(-72)
	ldi r17,lo8(11)
	ldi r18,lo8(7)
	ldi r20,lo8(36)
	ldi r21,0
	ldi r22,lo8(71)
	ldi r23,0
	ldi r24,lo8(68)
	ldi r25,0
	call FastPWM_Add
.LVL25:
	in __tmp_reg__,__SREG__
	cli
	out __SP_H__,r29
	out __SREG__,__tmp_reg__
	out __SP_L__,r28
.L2:
	.loc 1 61 0
	call BinarySensor_UpdateAll
.LVL26:
	.loc 1 64 0
	call can_check_message
.LVL27:
	tst r24
	breq .L2
.LBB2:
	.loc 1 68 0
	movw r24,r28
	subi r24,111
	sbci r25,-1
	call can_get_message
.LVL28:
	tst r24
	breq .L2
	.loc 1 69 0
	movw r22,r28
	subi r22,111
	sbci r23,-1
	movw r24,r28
	subi r24,-73
	sbci r25,-1
	call MCP_OnMessage
.LVL29:
	.loc 1 70 0
	movw r22,r28
	subi r22,111
	sbci r23,-1
	movw r24,r28
	adiw r24,1
	call MCP_OnMessage
.LVL30:
	.loc 1 71 0
	movw r24,r28
	subi r24,111
	sbci r25,-1
	call AX12_OnMessage
.LVL31:
	.loc 1 72 0
	movw r24,r28
	subi r24,111
	sbci r25,-1
	call FastPWM_OnMessage
.LVL32:
	rjmp .L2
.LBE2:
	.cfi_endproc
.LFE7:
	.size	main, .-main
	.text
.Letext0:
	.file 2 "/usr/avr/include/stdint.h"
	.file 3 "./libs/can/can.h"
	.file 4 "src/MCP.h"
	.file 5 "src/AX12.h"
	.file 6 "src/FastPWM.h"
	.file 7 "src/Utils.h"
	.file 8 "src/Debugger.h"
	.file 9 "./libs/can/can_wrapper.h"
	.file 10 "src/BinarySensor.h"